target datalayout = "e-m:e-p270:32:32-p271:32:32-p272:64:64-i64:64-i128:128-f80:128-n8:16:32:64-S128"
target triple = "x86_64-pc-linux-gnu"

%struct.lua_State = type { i8, i8, i8, i8, i8, i8, i8, ptr, ptr, ptr, ptr, ptr, ptr, ptr, ptr, i32, i32, i16, i16, i32, ptr, ptr, ptr, ptr, ptr }
%struct.global_State = type { %struct.stringtable, ptr, ptr, i8, i8, ptr, ptr, ptr, i64, i64, i32, i32, i32, [40 x ptr], [40 x ptr], ptr, ptr, ptr, [256 x i64], ptr, %struct.UpVal, [11 x ptr], [11 x ptr], [21 x ptr], %struct.lua_TValue, %struct.lua_TValue, i32, ptr, i64, [4 x i64], %struct.lua_Callbacks, %struct.lua_ExecutionCallbacks, [128 x ptr], [128 x ptr], [128 x ptr], %struct.GCStats }
%struct.stringtable = type { ptr, i32, i32 }
%struct.UpVal = type { i8, i8, i8, i8, ptr, %union.anon }
%union.anon = type { %struct.anon }
%struct.anon = type { ptr, ptr, ptr }
%struct.lua_TValue = type { %union.Value, [1 x i32], i32 }
%union.Value = type { ptr }
%struct.lua_Callbacks = type { ptr, ptr, ptr, ptr, ptr, ptr, ptr, ptr, ptr }
%struct.lua_ExecutionCallbacks = type { ptr, ptr, ptr, ptr, ptr, ptr, ptr }
%struct.GCStats = type { [32 x i32], i32, i32, i64, i64, i64, double, double, double }
%struct.GCheader = type { i8, i8, i8 }

; Function Attrs: mustprogress uwtable
define hidden void @_Z13luaC_barrierfP9lua_StateP8GCObjectS2_(ptr noundef %0, ptr noundef %1, ptr noundef %2) #0 {
  %4 = alloca ptr, align 8
  %5 = alloca ptr, align 8
  %6 = alloca ptr, align 8
  %7 = alloca ptr, align 8
  store ptr %0, ptr %4, align 8
  store ptr %1, ptr %5, align 8
  store ptr %2, ptr %6, align 8
  %8 = load ptr, ptr %4, align 8
  %9 = getelementptr inbounds %struct.lua_State, ptr %8, i32 0, i32 9
  %10 = load ptr, ptr %9, align 8
  store ptr %10, ptr %7, align 8
  %11 = load ptr, ptr %7, align 8
  %12 = getelementptr inbounds %struct.global_State, ptr %11, i32 0, i32 4
  %13 = load i8, ptr %12, align 1
  %14 = zext i8 %13 to i32
  %15 = icmp eq i32 %14, 1
  br i1 %15, label %28, label %16

16:                                               ; preds = %3
  %17 = load ptr, ptr %7, align 8
  %18 = getelementptr inbounds %struct.global_State, ptr %17, i32 0, i32 4
  %19 = load i8, ptr %18, align 1
  %20 = zext i8 %19 to i32
  %21 = icmp eq i32 %20, 2
  br i1 %21, label %28, label %22

22:                                               ; preds = %16
  %23 = load ptr, ptr %7, align 8
  %24 = getelementptr inbounds %struct.global_State, ptr %23, i32 0, i32 4
  %25 = load i8, ptr %24, align 1
  %26 = zext i8 %25 to i32
  %27 = icmp eq i32 %26, 3
  br i1 %27, label %28, label %31

28:                                               ; preds = %22, %16, %3
  %29 = load ptr, ptr %7, align 8
  %30 = load ptr, ptr %6, align 8
  call void @_ZL16reallymarkobjectP12global_StateP8GCObject(ptr noundef %29, ptr noundef %30)
  br label %48

31:                                               ; preds = %22
  %32 = load ptr, ptr %5, align 8
  %33 = getelementptr inbounds %struct.GCheader, ptr %32, i32 0, i32 1
  %34 = load i8, ptr %33, align 1
  %35 = zext i8 %34 to i32
  %36 = and i32 %35, 248
  %37 = load ptr, ptr %7, align 8
  %38 = getelementptr inbounds %struct.global_State, ptr %37, i32 0, i32 3
  %39 = load i8, ptr %38, align 8
  %40 = zext i8 %39 to i32
  %41 = and i32 %40, 3
  %42 = trunc i32 %41 to i8
  %43 = zext i8 %42 to i32
  %44 = or i32 %36, %43
  %45 = trunc i32 %44 to i8
  %46 = load ptr, ptr %5, align 8
  %47 = getelementptr inbounds %struct.GCheader, ptr %46, i32 0, i32 1
  store i8 %45, ptr %47, align 1
  br label %48

48:                                               ; preds = %31, %28
  ret void
}