; Function Attrs: mustprogress nofree nosync nounwind memory(readwrite, inaccessiblemem: none) uwtable
define hidden void @_Z13luaC_barrierfP9lua_StateP8GCObjectS2_(ptr nocapture noundef readonly %0, ptr nocapture noundef %1, ptr noundef %2) local_unnamed_addr #2 {
  %4 = getelementptr inbounds i8, ptr %0, i64 24
  %5 = load ptr, ptr %4, align 8
  %6 = getelementptr inbounds i8, ptr %5, i64 33
  %7 = load i8, ptr %6, align 1
  %.off = add i8 %7, -1
  %switch = icmp ult i8 %.off, 3
  br i1 %switch, label %8, label %9

8:                                                ; preds = %3
  tail call fastcc void @_ZL16reallymarkobjectP12global_StateP8GCObject(ptr noundef nonnull %5, ptr noundef %2)
  br label %17

9:                                                ; preds = %3
  %10 = getelementptr inbounds i8, ptr %1, i64 1
  %11 = load i8, ptr %10, align 1
  %12 = and i8 %11, -8
  %13 = getelementptr inbounds i8, ptr %5, i64 32
  %14 = load i8, ptr %13, align 8
  %15 = and i8 %14, 3
  %16 = or disjoint i8 %15, %12
  store i8 %16, ptr %10, align 1
  br label %17

17:                                               ; preds = %9, %8
  ret void
}